ARM GAS  C:\DOCUME~1\uidc1485\LOCALS~1\Temp\cctm9aAb.s 			page 1


   1              		.syntax unified
   2              		.arch armv7-m
   3              		.fpu softvfp
   4              		.eabi_attribute 20, 1
   5              		.eabi_attribute 21, 1
   6              		.eabi_attribute 23, 3
   7              		.eabi_attribute 24, 1
   8              		.eabi_attribute 25, 1
   9              		.eabi_attribute 26, 1
  10              		.eabi_attribute 30, 6
  11              		.eabi_attribute 18, 4
  12              		.thumb
  13              		.file	"cortex_m3_test_app.c"
  20 0000 E8000000 		.text
  20      02006E00 
  20      00000201 
  20      FB0E0D00 
  20      01010101 
  21              	.Ltext0:
  22              		.cfi_sections	.debug_frame
  23              		.global	str_out
  24              		.section	.rodata
  25              		.align	2
  26              	.LC0:
  27 0000 48656C6C 		.ascii	"Hello, OVP!!!\000"
  27      6F2C204F 
  27      56502121 
  27      2100
  28 000e 0000     		.align	2
  29              		.type	str_out, %object
  30              		.size	str_out, 4
  31              	str_out:
  32 0010 00000000 		.word	.LC0
  33              		.text
  34              		.align	2
  35              		.global	dbg_print
  36              		.thumb
  37              		.thumb_func
  38              		.type	dbg_print, %function
  39              	dbg_print:
  40              	.LFB0:
  41              		.file 1 "cortex_m3_test_app.c"
   1:cortex_m3_test_app.c **** /**
   2:cortex_m3_test_app.c ****  * @file
   3:cortex_m3_test_app.c ****  * Demo application for the Cortex-M3 test platform.
   4:cortex_m3_test_app.c ****  *
   5:cortex_m3_test_app.c ****  * @author Shahzeb Ihsan
   6:cortex_m3_test_app.c ****  * @version 1.0
   7:cortex_m3_test_app.c ****  * @see cortex_m3_test_platform.c
   8:cortex_m3_test_app.c ****  */
   9:cortex_m3_test_app.c **** 
ARM GAS  C:\DOCUME~1\uidc1485\LOCALS~1\Temp\cctm9aAb.s 			page 2


  10:cortex_m3_test_app.c **** /* Standard headers */
  11:cortex_m3_test_app.c **** #include <stdint.h>
  12:cortex_m3_test_app.c **** 
  13:cortex_m3_test_app.c **** /* Log register definitions */
  14:cortex_m3_test_app.c **** #define REG_LOG_TRIG       ((volatile unsigned char *) (0x00200001))
  15:cortex_m3_test_app.c **** #define REG_LOG_BUFF       ((volatile unsigned char *) (0x00200000))
  16:cortex_m3_test_app.c **** 
  17:cortex_m3_test_app.c **** /* UART register definitions */
  18:cortex_m3_test_app.c **** #define REG_UART_BASE      ((unsigned char *) 0x00100000)
  19:cortex_m3_test_app.c **** #define REG_UARTDR         ((volatile unsigned char *) (REG_UART_BASE + 0))
  20:cortex_m3_test_app.c **** #define REG_UARTFR         ((volatile unsigned char *) (REG_UART_BASE + 0x18))
  21:cortex_m3_test_app.c **** #define REG_UARTLCR_H      ((volatile unsigned char *) (REG_UART_BASE + 0x2C))
  22:cortex_m3_test_app.c **** #define REG_UARTCR         ((volatile unsigned char *) (REG_UART_BASE + 0x30))
  23:cortex_m3_test_app.c **** #define REG_UARTRIS        ((volatile unsigned char *) (REG_UART_BASE + 0x3C))
  24:cortex_m3_test_app.c **** #define REG_UARTIMSC       ((volatile unsigned char *) (REG_UART_BASE + 0x38))
  25:cortex_m3_test_app.c **** #define REG_UARTMIS        ((volatile unsigned char *) (REG_UART_BASE + 0x40))
  26:cortex_m3_test_app.c **** 
  27:cortex_m3_test_app.c **** /* UARTFR bit definitions */
  28:cortex_m3_test_app.c **** #define REG_BIT_RXFE       (0x01 << 4)
  29:cortex_m3_test_app.c **** 
  30:cortex_m3_test_app.c **** /* Program definitions */
  31:cortex_m3_test_app.c **** #define CHAR_CTRL_D        (0x04)
  32:cortex_m3_test_app.c **** 
  33:cortex_m3_test_app.c **** /* Local constants */
  34:cortex_m3_test_app.c **** const char * const str_out = "Hello, OVP!!!";
  35:cortex_m3_test_app.c **** 
  36:cortex_m3_test_app.c **** 
  37:cortex_m3_test_app.c **** /**
  38:cortex_m3_test_app.c ****  * @brief Uses the platform's debug memory region to print
  39:cortex_m3_test_app.c ****  *        debug messages
  40:cortex_m3_test_app.c ****  *
  41:cortex_m3_test_app.c ****  * @param str String to print out.
  42:cortex_m3_test_app.c ****  */
  43:cortex_m3_test_app.c **** void dbg_print(char * str)
  44:cortex_m3_test_app.c **** {
  42              		.loc 1 44 0
  43              		.cfi_startproc
  44              		@ args = 0, pretend = 0, frame = 16
  45              		@ frame_needed = 1, uses_anonymous_args = 0
  46              		@ link register save eliminated.
  47 0000 80B4     		push	{r7}
  48              	.LCFI0:
  49              		.cfi_def_cfa_offset 4
  50 0002 85B0     		sub	sp, sp, #20
  51              	.LCFI1:
  52              		.cfi_def_cfa_offset 24
  53 0004 00AF     		add	r7, sp, #0
  54              		.cfi_offset 7, -4
  55              	.LCFI2:
  56              		.cfi_def_cfa_register 7
  57 0006 7860     		str	r0, [r7, #4]
  45:cortex_m3_test_app.c ****    unsigned char index = 0;
  58              		.loc 1 45 0
  59 0008 4FF00003 		mov	r3, #0
  60 000c FB73     		strb	r3, [r7, #15]
  46:cortex_m3_test_app.c **** 
  47:cortex_m3_test_app.c ****    /* Set the debug trigger. */
ARM GAS  C:\DOCUME~1\uidc1485\LOCALS~1\Temp\cctm9aAb.s 			page 3


  48:cortex_m3_test_app.c ****    *REG_LOG_TRIG = 0x00;
  61              		.loc 1 48 0
  62 000e 4FF00103 		mov	r3, #1
  63 0012 C0F22003 		movt	r3, 32
  64 0016 4FF00002 		mov	r2, #0
  65 001a 1A70     		strb	r2, [r3, #0]
  66              	.L2:
  49:cortex_m3_test_app.c ****    do
  50:cortex_m3_test_app.c ****    {
  51:cortex_m3_test_app.c ****      *REG_LOG_BUFF = *(str + index++);
  67              		.loc 1 51 0 discriminator 1
  68 001c 4FF40013 		mov	r3, #2097152
  69 0020 FA7B     		ldrb	r2, [r7, #15]	@ zero_extendqisi2
  70 0022 7968     		ldr	r1, [r7, #4]
  71 0024 0A44     		add	r2, r1, r2
  72 0026 1278     		ldrb	r2, [r2, #0]	@ zero_extendqisi2
  73 0028 1A70     		strb	r2, [r3, #0]
  74 002a FB7B     		ldrb	r3, [r7, #15]
  75 002c 03F10103 		add	r3, r3, #1
  76 0030 FB73     		strb	r3, [r7, #15]
  52:cortex_m3_test_app.c ****    } while(*(str + index) != '\0');
  77              		.loc 1 52 0 discriminator 1
  78 0032 FB7B     		ldrb	r3, [r7, #15]	@ zero_extendqisi2
  79 0034 7A68     		ldr	r2, [r7, #4]
  80 0036 1344     		add	r3, r2, r3
  81 0038 1B78     		ldrb	r3, [r3, #0]	@ zero_extendqisi2
  82 003a 002B     		cmp	r3, #0
  83 003c EED1     		bne	.L2
  53:cortex_m3_test_app.c **** 
  54:cortex_m3_test_app.c ****    /* Terminate the string. */
  55:cortex_m3_test_app.c ****    *REG_LOG_BUFF = '\0';
  84              		.loc 1 55 0
  85 003e 4FF40013 		mov	r3, #2097152
  86 0042 4FF00002 		mov	r2, #0
  87 0046 1A70     		strb	r2, [r3, #0]
  56:cortex_m3_test_app.c **** 
  57:cortex_m3_test_app.c ****    /* Clear the trigger. */
  58:cortex_m3_test_app.c ****    *REG_LOG_TRIG = 0xFF;
  88              		.loc 1 58 0
  89 0048 4FF00103 		mov	r3, #1
  90 004c C0F22003 		movt	r3, 32
  91 0050 4FF0FF02 		mov	r2, #255
  92 0054 1A70     		strb	r2, [r3, #0]
  59:cortex_m3_test_app.c **** }
  93              		.loc 1 59 0
  94 0056 07F11407 		add	r7, r7, #20
  95 005a BD46     		mov	sp, r7
  96 005c 80BC     		pop	{r7}
  97 005e 7047     		bx	lr
  98              		.cfi_endproc
  99              	.LFE0:
 100              		.size	dbg_print, .-dbg_print
 101              		.align	2
 102              		.global	concat_str
 103              		.thumb
 104              		.thumb_func
 105              		.type	concat_str, %function
ARM GAS  C:\DOCUME~1\uidc1485\LOCALS~1\Temp\cctm9aAb.s 			page 4


 106              	concat_str:
 107              	.LFB1:
  60:cortex_m3_test_app.c **** 
  61:cortex_m3_test_app.c **** /**
  62:cortex_m3_test_app.c ****  * @brief Concat string 1 and string 2 and copy to buff.
  63:cortex_m3_test_app.c ****  *
  64:cortex_m3_test_app.c ****  * @param buff Target buffer.
  65:cortex_m3_test_app.c ****  * @str1 First string.
  66:cortex_m3_test_app.c ****  * @str2 Second string.
  67:cortex_m3_test_app.c ****  */
  68:cortex_m3_test_app.c **** void
  69:cortex_m3_test_app.c **** concat_str(char * buff, char * str1, char * str2)
  70:cortex_m3_test_app.c **** {
 108              		.loc 1 70 0
 109              		.cfi_startproc
 110              		@ args = 0, pretend = 0, frame = 24
 111              		@ frame_needed = 1, uses_anonymous_args = 0
 112              		@ link register save eliminated.
 113 0060 80B4     		push	{r7}
 114              	.LCFI3:
 115              		.cfi_def_cfa_offset 4
 116 0062 87B0     		sub	sp, sp, #28
 117              	.LCFI4:
 118              		.cfi_def_cfa_offset 32
 119 0064 00AF     		add	r7, sp, #0
 120              		.cfi_offset 7, -4
 121              	.LCFI5:
 122              		.cfi_def_cfa_register 7
 123 0066 F860     		str	r0, [r7, #12]
 124 0068 B960     		str	r1, [r7, #8]
 125 006a 7A60     		str	r2, [r7, #4]
  71:cortex_m3_test_app.c ****    uint32_t i = 0, j;
 126              		.loc 1 71 0
 127 006c 4FF00003 		mov	r3, #0
 128 0070 7B61     		str	r3, [r7, #20]
  72:cortex_m3_test_app.c **** 
  73:cortex_m3_test_app.c ****    /* Copy the first string. */
  74:cortex_m3_test_app.c ****    j = 0;
 129              		.loc 1 74 0
 130 0072 4FF00003 		mov	r3, #0
 131 0076 3B61     		str	r3, [r7, #16]
  75:cortex_m3_test_app.c ****    while(str1[j] != '\0')
 132              		.loc 1 75 0
 133 0078 0FE0     		b	.L4
 134              	.L5:
  76:cortex_m3_test_app.c ****    {
  77:cortex_m3_test_app.c ****       buff[i++] = str1[j++];
 135              		.loc 1 77 0
 136 007a FA68     		ldr	r2, [r7, #12]
 137 007c 7B69     		ldr	r3, [r7, #20]
 138 007e 1344     		add	r3, r2, r3
 139 0080 B968     		ldr	r1, [r7, #8]
 140 0082 3A69     		ldr	r2, [r7, #16]
 141 0084 0A44     		add	r2, r1, r2
 142 0086 1278     		ldrb	r2, [r2, #0]	@ zero_extendqisi2
 143 0088 1A70     		strb	r2, [r3, #0]
 144 008a 7B69     		ldr	r3, [r7, #20]
ARM GAS  C:\DOCUME~1\uidc1485\LOCALS~1\Temp\cctm9aAb.s 			page 5


 145 008c 03F10103 		add	r3, r3, #1
 146 0090 7B61     		str	r3, [r7, #20]
 147 0092 3B69     		ldr	r3, [r7, #16]
 148 0094 03F10103 		add	r3, r3, #1
 149 0098 3B61     		str	r3, [r7, #16]
 150              	.L4:
  75:cortex_m3_test_app.c ****    while(str1[j] != '\0')
 151              		.loc 1 75 0 discriminator 1
 152 009a BA68     		ldr	r2, [r7, #8]
 153 009c 3B69     		ldr	r3, [r7, #16]
 154 009e 1344     		add	r3, r2, r3
 155 00a0 1B78     		ldrb	r3, [r3, #0]	@ zero_extendqisi2
 156 00a2 002B     		cmp	r3, #0
 157 00a4 E9D1     		bne	.L5
  78:cortex_m3_test_app.c ****    }
  79:cortex_m3_test_app.c **** 
  80:cortex_m3_test_app.c ****    /* Copy the second string. */
  81:cortex_m3_test_app.c ****    j = 0;
 158              		.loc 1 81 0
 159 00a6 4FF00003 		mov	r3, #0
 160 00aa 3B61     		str	r3, [r7, #16]
  82:cortex_m3_test_app.c ****    while(str2[j] != '\0')
 161              		.loc 1 82 0
 162 00ac 0FE0     		b	.L6
 163              	.L7:
  83:cortex_m3_test_app.c ****    {
  84:cortex_m3_test_app.c ****       buff[i++] = str2[j++];
 164              		.loc 1 84 0
 165 00ae FA68     		ldr	r2, [r7, #12]
 166 00b0 7B69     		ldr	r3, [r7, #20]
 167 00b2 1344     		add	r3, r2, r3
 168 00b4 7968     		ldr	r1, [r7, #4]
 169 00b6 3A69     		ldr	r2, [r7, #16]
 170 00b8 0A44     		add	r2, r1, r2
 171 00ba 1278     		ldrb	r2, [r2, #0]	@ zero_extendqisi2
 172 00bc 1A70     		strb	r2, [r3, #0]
 173 00be 7B69     		ldr	r3, [r7, #20]
 174 00c0 03F10103 		add	r3, r3, #1
 175 00c4 7B61     		str	r3, [r7, #20]
 176 00c6 3B69     		ldr	r3, [r7, #16]
 177 00c8 03F10103 		add	r3, r3, #1
 178 00cc 3B61     		str	r3, [r7, #16]
 179              	.L6:
  82:cortex_m3_test_app.c ****    while(str2[j] != '\0')
 180              		.loc 1 82 0 discriminator 1
 181 00ce 7A68     		ldr	r2, [r7, #4]
 182 00d0 3B69     		ldr	r3, [r7, #16]
 183 00d2 1344     		add	r3, r2, r3
 184 00d4 1B78     		ldrb	r3, [r3, #0]	@ zero_extendqisi2
 185 00d6 002B     		cmp	r3, #0
 186 00d8 E9D1     		bne	.L7
  85:cortex_m3_test_app.c ****    }
  86:cortex_m3_test_app.c **** 
  87:cortex_m3_test_app.c ****    /* Terminate the string. */
  88:cortex_m3_test_app.c ****    buff[i] = '\0';
 187              		.loc 1 88 0
 188 00da FA68     		ldr	r2, [r7, #12]
ARM GAS  C:\DOCUME~1\uidc1485\LOCALS~1\Temp\cctm9aAb.s 			page 6


 189 00dc 7B69     		ldr	r3, [r7, #20]
 190 00de 1344     		add	r3, r2, r3
 191 00e0 4FF00002 		mov	r2, #0
 192 00e4 1A70     		strb	r2, [r3, #0]
  89:cortex_m3_test_app.c **** }
 193              		.loc 1 89 0
 194 00e6 07F11C07 		add	r7, r7, #28
 195 00ea BD46     		mov	sp, r7
 196 00ec 80BC     		pop	{r7}
 197 00ee 7047     		bx	lr
 198              		.cfi_endproc
 199              	.LFE1:
 200              		.size	concat_str, .-concat_str
 201              		.align	2
 202              		.global	itos
 203              		.thumb
 204              		.thumb_func
 205              		.type	itos, %function
 206              	itos:
 207              	.LFB2:
  90:cortex_m3_test_app.c **** 
  91:cortex_m3_test_app.c **** /**
  92:cortex_m3_test_app.c ****  * @brief Convert integer to string.
  93:cortex_m3_test_app.c ****  *
  94:cortex_m3_test_app.c ****  * @param buff Buffer where to copy the string.
  95:cortex_m3_test_app.c ****  * @param i The integer to convert.
  96:cortex_m3_test_app.c ****  */
  97:cortex_m3_test_app.c **** void
  98:cortex_m3_test_app.c **** itos(char * buff, uint32_t i)
  99:cortex_m3_test_app.c **** {
 208              		.loc 1 99 0
 209              		.cfi_startproc
 210              		@ args = 0, pretend = 0, frame = 16
 211              		@ frame_needed = 1, uses_anonymous_args = 0
 212              		@ link register save eliminated.
 213 00f0 80B4     		push	{r7}
 214              	.LCFI6:
 215              		.cfi_def_cfa_offset 4
 216 00f2 85B0     		sub	sp, sp, #20
 217              	.LCFI7:
 218              		.cfi_def_cfa_offset 24
 219 00f4 00AF     		add	r7, sp, #0
 220              		.cfi_offset 7, -4
 221              	.LCFI8:
 222              		.cfi_def_cfa_register 7
 223 00f6 7860     		str	r0, [r7, #4]
 224 00f8 3960     		str	r1, [r7, #0]
 100:cortex_m3_test_app.c ****    uint8_t j, k = 0;
 225              		.loc 1 100 0
 226 00fa 4FF00003 		mov	r3, #0
 227 00fe FB73     		strb	r3, [r7, #15]
 228              	.L9:
 101:cortex_m3_test_app.c ****    do
 102:cortex_m3_test_app.c ****    {
 103:cortex_m3_test_app.c ****       j = i % 10;
 229              		.loc 1 103 0 discriminator 1
 230 0100 3968     		ldr	r1, [r7, #0]
ARM GAS  C:\DOCUME~1\uidc1485\LOCALS~1\Temp\cctm9aAb.s 			page 7


 231 0102 4CF6CD43 		movw	r3, #52429
 232 0106 CCF6CC43 		movt	r3, 52428
 233 010a A3FB0123 		umull	r2, r3, r3, r1
 234 010e 4FEAD302 		lsr	r2, r3, #3
 235 0112 1346     		mov	r3, r2
 236 0114 4FEA8303 		lsl	r3, r3, #2
 237 0118 1344     		add	r3, r3, r2
 238 011a 4FEA4303 		lsl	r3, r3, #1
 239 011e C3EB0102 		rsb	r2, r3, r1
 240 0122 1346     		mov	r3, r2
 241 0124 BB73     		strb	r3, [r7, #14]
 104:cortex_m3_test_app.c ****       i = i / 10;
 242              		.loc 1 104 0 discriminator 1
 243 0126 3A68     		ldr	r2, [r7, #0]
 244 0128 4CF6CD43 		movw	r3, #52429
 245 012c CCF6CC43 		movt	r3, 52428
 246 0130 A3FB0213 		umull	r1, r3, r3, r2
 247 0134 4FEAD303 		lsr	r3, r3, #3
 248 0138 3B60     		str	r3, [r7, #0]
 105:cortex_m3_test_app.c ****       buff[k++] = j + 0x30;
 249              		.loc 1 105 0 discriminator 1
 250 013a FB7B     		ldrb	r3, [r7, #15]	@ zero_extendqisi2
 251 013c 7A68     		ldr	r2, [r7, #4]
 252 013e 1344     		add	r3, r2, r3
 253 0140 BA7B     		ldrb	r2, [r7, #14]
 254 0142 02F13002 		add	r2, r2, #48
 255 0146 D2B2     		uxtb	r2, r2
 256 0148 1A70     		strb	r2, [r3, #0]
 257 014a FB7B     		ldrb	r3, [r7, #15]
 258 014c 03F10103 		add	r3, r3, #1
 259 0150 FB73     		strb	r3, [r7, #15]
 106:cortex_m3_test_app.c ****    } while(i / 10);
 260              		.loc 1 106 0 discriminator 1
 261 0152 3B68     		ldr	r3, [r7, #0]
 262 0154 092B     		cmp	r3, #9
 263 0156 D3D8     		bhi	.L9
 107:cortex_m3_test_app.c **** 
 108:cortex_m3_test_app.c ****    /* Terminate the string. */
 109:cortex_m3_test_app.c ****    buff[k] = '\0';
 264              		.loc 1 109 0
 265 0158 FB7B     		ldrb	r3, [r7, #15]	@ zero_extendqisi2
 266 015a 7A68     		ldr	r2, [r7, #4]
 267 015c 1344     		add	r3, r2, r3
 268 015e 4FF00002 		mov	r2, #0
 269 0162 1A70     		strb	r2, [r3, #0]
 110:cortex_m3_test_app.c **** }
 270              		.loc 1 110 0
 271 0164 07F11407 		add	r7, r7, #20
 272 0168 BD46     		mov	sp, r7
 273 016a 80BC     		pop	{r7}
 274 016c 7047     		bx	lr
 275              		.cfi_endproc
 276              	.LFE2:
 277              		.size	itos, .-itos
 278              		.section	.rodata
 279              		.align	2
 280              	.LC1:
ARM GAS  C:\DOCUME~1\uidc1485\LOCALS~1\Temp\cctm9aAb.s 			page 8


 281 0014 3E3E3E20 		.ascii	">>> Starting echo program...\000"
 281      53746172 
 281      74696E67 
 281      20656368 
 281      6F207072 
 282 0031 000000   		.align	2
 283              	.LC2:
 284 0034 3E3E3E20 		.ascii	">>> Ctrl-D recieved, terminating program...\000"
 284      4374726C 
 284      2D442072 
 284      65636965 
 284      7665642C 
 285              		.align	2
 286              	.LC3:
 287 0060 3E3E3E20 		.ascii	">>> Number of characters received: \000"
 287      4E756D62 
 287      6572206F 
 287      66206368 
 287      61726163 
 288              		.text
 289 016e 00BF     		.align	2
 290              		.global	main
 291              		.thumb
 292              		.thumb_func
 293              		.type	main, %function
 294              	main:
 295              	.LFB3:
 111:cortex_m3_test_app.c **** 
 112:cortex_m3_test_app.c **** /**
 113:cortex_m3_test_app.c ****  * @brief Application entry point, initializes the UART and echoes
 114:cortex_m3_test_app.c ****  *        any data it receives through the UART.
 115:cortex_m3_test_app.c ****  *
 116:cortex_m3_test_app.c ****  * @return Exit status.
 117:cortex_m3_test_app.c ****  */
 118:cortex_m3_test_app.c **** int
 119:cortex_m3_test_app.c **** main(void)
 120:cortex_m3_test_app.c **** {
 296              		.loc 1 120 0
 297              		.cfi_startproc
 298              		@ args = 0, pretend = 0, frame = 176
 299              		@ frame_needed = 1, uses_anonymous_args = 0
 300 0170 80B5     		push	{r7, lr}
 301              	.LCFI9:
 302              		.cfi_def_cfa_offset 8
 303 0172 ACB0     		sub	sp, sp, #176
 304              	.LCFI10:
 305              		.cfi_def_cfa_offset 184
 306 0174 00AF     		add	r7, sp, #0
 307              		.cfi_offset 14, -4
 308              		.cfi_offset 7, -8
 309              	.LCFI11:
 310              		.cfi_def_cfa_register 7
 121:cortex_m3_test_app.c ****    char c;
 122:cortex_m3_test_app.c ****    uint32_t i;
 123:cortex_m3_test_app.c ****    uint32_t char_cnt = 0;;
 311              		.loc 1 123 0
 312 0176 4FF00003 		mov	r3, #0
ARM GAS  C:\DOCUME~1\uidc1485\LOCALS~1\Temp\cctm9aAb.s 			page 9


 313 017a C7F8A830 		str	r3, [r7, #168]
 124:cortex_m3_test_app.c ****    uint8_t temp[32], buff[128];
 125:cortex_m3_test_app.c **** 
 126:cortex_m3_test_app.c ****    /* UART initialization. */
 127:cortex_m3_test_app.c ****    *REG_UARTLCR_H = 0x10;
 314              		.loc 1 127 0
 315 017e 4FF02C03 		mov	r3, #44
 316 0182 C0F21003 		movt	r3, 16
 317 0186 4FF01002 		mov	r2, #16
 318 018a 1A70     		strb	r2, [r3, #0]
 128:cortex_m3_test_app.c ****    *REG_UARTCR |= 0x11;
 319              		.loc 1 128 0
 320 018c 4FF03003 		mov	r3, #48
 321 0190 C0F21003 		movt	r3, 16
 322 0194 4FF03002 		mov	r2, #48
 323 0198 C0F21002 		movt	r2, 16
 324 019c 1278     		ldrb	r2, [r2, #0]
 325 019e D2B2     		uxtb	r2, r2
 326 01a0 42F01102 		orr	r2, r2, #17
 327 01a4 D2B2     		uxtb	r2, r2
 328 01a6 1A70     		strb	r2, [r3, #0]
 129:cortex_m3_test_app.c **** 
 130:cortex_m3_test_app.c ****    /* Program loop, terminates when its receives Ctrl-D. */
 131:cortex_m3_test_app.c ****    dbg_print(">>> Starting echo program...");
 329              		.loc 1 131 0
 330 01a8 40F20000 		movw	r0, #:lower16:.LC1
 331 01ac C0F20000 		movt	r0, #:upper16:.LC1
 332 01b0 FFF7FEFF 		bl	dbg_print
 132:cortex_m3_test_app.c ****    while(1)
 133:cortex_m3_test_app.c ****    {
 134:cortex_m3_test_app.c ****       /* Wait to receive a character. */
 135:cortex_m3_test_app.c ****       while((*REG_UARTFR & REG_BIT_RXFE) != 0)
 333              		.loc 1 135 0
 334 01b4 0DE0     		b	.L11
 335              	.L13:
 136:cortex_m3_test_app.c ****       {
 137:cortex_m3_test_app.c ****          i = 100;
 336              		.loc 1 137 0
 337 01b6 4FF06403 		mov	r3, #100
 338 01ba C7F8AC30 		str	r3, [r7, #172]
 339              	.L12:
 138:cortex_m3_test_app.c ****          while(--i);
 340              		.loc 1 138 0 discriminator 1
 341 01be D7F8AC30 		ldr	r3, [r7, #172]
 342 01c2 03F1FF33 		add	r3, r3, #-1
 343 01c6 C7F8AC30 		str	r3, [r7, #172]
 344 01ca D7F8AC30 		ldr	r3, [r7, #172]
 345 01ce 002B     		cmp	r3, #0
 346 01d0 F5D1     		bne	.L12
 347              	.L11:
 135:cortex_m3_test_app.c ****       while((*REG_UARTFR & REG_BIT_RXFE) != 0)
 348              		.loc 1 135 0 discriminator 1
 349 01d2 4FF01803 		mov	r3, #24
 350 01d6 C0F21003 		movt	r3, 16
 351 01da 1B78     		ldrb	r3, [r3, #0]
 352 01dc DBB2     		uxtb	r3, r3
 353 01de 03F01003 		and	r3, r3, #16
ARM GAS  C:\DOCUME~1\uidc1485\LOCALS~1\Temp\cctm9aAb.s 			page 10


 354 01e2 002B     		cmp	r3, #0
 355 01e4 E7D1     		bne	.L13
 139:cortex_m3_test_app.c ****       }
 140:cortex_m3_test_app.c **** 
 141:cortex_m3_test_app.c ****       /* Read the character. */
 142:cortex_m3_test_app.c ****       c = *REG_UARTDR;
 356              		.loc 1 142 0
 357 01e6 4FF48013 		mov	r3, #1048576
 358 01ea 1B78     		ldrb	r3, [r3, #0]
 359 01ec 87F8A730 		strb	r3, [r7, #167]
 143:cortex_m3_test_app.c **** 
 144:cortex_m3_test_app.c ****       /* Break out of the loop if the received character
 145:cortex_m3_test_app.c ****        * is Ctrl-D. */
 146:cortex_m3_test_app.c ****       if(c == CHAR_CTRL_D)
 360              		.loc 1 146 0
 361 01f0 97F8A730 		ldrb	r3, [r7, #167]	@ zero_extendqisi2
 362 01f4 042B     		cmp	r3, #4
 363 01f6 24D1     		bne	.L14
 147:cortex_m3_test_app.c ****       {
 148:cortex_m3_test_app.c ****          dbg_print(">>> Ctrl-D recieved, terminating program...");
 364              		.loc 1 148 0
 365 01f8 40F20000 		movw	r0, #:lower16:.LC2
 366 01fc C0F20000 		movt	r0, #:upper16:.LC2
 367 0200 FFF7FEFF 		bl	dbg_print
 149:cortex_m3_test_app.c ****          break;
 150:cortex_m3_test_app.c ****       }
 151:cortex_m3_test_app.c **** 
 152:cortex_m3_test_app.c ****       /* Echo the character. */
 153:cortex_m3_test_app.c ****       *REG_UARTDR = c;
 154:cortex_m3_test_app.c ****       char_cnt++;
 155:cortex_m3_test_app.c ****    }
 156:cortex_m3_test_app.c **** 
 157:cortex_m3_test_app.c ****    itos(temp, char_cnt);
 368              		.loc 1 157 0
 369 0204 07F18403 		add	r3, r7, #132
 370 0208 1846     		mov	r0, r3
 371 020a D7F8A810 		ldr	r1, [r7, #168]
 372 020e FFF7FEFF 		bl	itos
 158:cortex_m3_test_app.c ****    concat_str(buff, ">>> Number of characters received: ", temp);
 373              		.loc 1 158 0
 374 0212 07F10402 		add	r2, r7, #4
 375 0216 07F18403 		add	r3, r7, #132
 376 021a 1046     		mov	r0, r2
 377 021c 40F20001 		movw	r1, #:lower16:.LC3
 378 0220 C0F20001 		movt	r1, #:upper16:.LC3
 379 0224 1A46     		mov	r2, r3
 380 0226 FFF7FEFF 		bl	concat_str
 159:cortex_m3_test_app.c ****    dbg_print(buff);
 381              		.loc 1 159 0
 382 022a 07F10403 		add	r3, r7, #4
 383 022e 1846     		mov	r0, r3
 384 0230 FFF7FEFF 		bl	dbg_print
 160:cortex_m3_test_app.c ****    return (0);
 385              		.loc 1 160 0
 386 0234 4FF00003 		mov	r3, #0
 161:cortex_m3_test_app.c **** }
 387              		.loc 1 161 0
ARM GAS  C:\DOCUME~1\uidc1485\LOCALS~1\Temp\cctm9aAb.s 			page 11


 388 0238 1846     		mov	r0, r3
 389 023a 07F1B007 		add	r7, r7, #176
 390 023e BD46     		mov	sp, r7
 391 0240 80BD     		pop	{r7, pc}
 392              	.L14:
 153:cortex_m3_test_app.c ****       *REG_UARTDR = c;
 393              		.loc 1 153 0
 394 0242 4FF48013 		mov	r3, #1048576
 395 0246 97F8A720 		ldrb	r2, [r7, #167]
 396 024a 1A70     		strb	r2, [r3, #0]
 154:cortex_m3_test_app.c ****       char_cnt++;
 397              		.loc 1 154 0
 398 024c D7F8A830 		ldr	r3, [r7, #168]
 399 0250 03F10103 		add	r3, r3, #1
 400 0254 C7F8A830 		str	r3, [r7, #168]
 155:cortex_m3_test_app.c ****    }
 401              		.loc 1 155 0
 402 0258 00BF     		nop
 135:cortex_m3_test_app.c ****       while((*REG_UARTFR & REG_BIT_RXFE) != 0)
 403              		.loc 1 135 0
 404 025a BAE7     		b	.L11
 405              		.cfi_endproc
 406              	.LFE3:
 407              		.size	main, .-main
 408              	.Letext0: